; Function Attrs: mustprogress nofree nosync nounwind memory(readwrite, inaccessiblemem: none) uwtable
define hidden void @_ZN6Assimp15ObjFileImporter12countObjectsERKSt6vectorIPNS_7ObjFile6ObjectESaIS4_EERi(ptr nocapture noundef nonnull readnone align 8 dereferenceable(136) %this, ptr nocapture noundef nonnull readonly align 8 dereferenceable(24) %rObjects, ptr nocapture noundef nonnull writeonly align 4 dereferenceable(4) %iNumMeshes) local_unnamed_addr #11 align 2 {
entry:
  store i32 0, ptr %iNumMeshes, align 4
  %0 = load ptr, ptr %rObjects, align 8
  %_M_finish.i.i = getelementptr inbounds i8, ptr %rObjects, i64 8
  %1 = load ptr, ptr %_M_finish.i.i, align 8
  %cmp.i.i = icmp eq ptr %0, %1
  br i1 %cmp.i.i, label %for.end, label %if.end

if.end:                                           ; preds = %entry
  %sub.ptr.lhs.cast.i = ptrtoint ptr %1 to i64
  %sub.ptr.rhs.cast.i = ptrtoint ptr %0 to i64
  %sub.ptr.sub.i = sub i64 %sub.ptr.lhs.cast.i, %sub.ptr.rhs.cast.i
  %sub.ptr.div.i = lshr exact i64 %sub.ptr.sub.i, 3
  %conv = trunc i64 %sub.ptr.div.i to i32
  store i32 %conv, ptr %iNumMeshes, align 4
  %2 = load ptr, ptr %rObjects, align 8
  %3 = load ptr, ptr %_M_finish.i.i, align 8
  %cmp.i.not12 = icmp eq ptr %2, %3
  br i1 %cmp.i.not12, label %for.end, label %for.body

for.body:                                         ; preds = %if.end, %for.inc
  %__begin1.sroa.0.013 = phi ptr [ %incdec.ptr.i, %for.inc ], [ %2, %if.end ]
  %4 = load ptr, ptr %__begin1.sroa.0.013, align 8
  %m_SubObjects = getelementptr inbounds i8, ptr %4, i64 96
  %5 = load ptr, ptr %m_SubObjects, align 8
  %_M_finish.i.i8 = getelementptr inbounds i8, ptr %4, i64 104
  %6 = load ptr, ptr %_M_finish.i.i8, align 8
  %cmp.i.i9 = icmp eq ptr %5, %6
  br i1 %cmp.i.i9, label %for.inc, label %if.then9

if.then9:                                         ; preds = %for.body
  tail call void @_ZN6Assimp15ObjFileImporter12countObjectsERKSt6vectorIPNS_7ObjFile6ObjectESaIS4_EERi(ptr noundef nonnull align 8 dereferenceable(136) %this, ptr noundef nonnull align 8 dereferenceable(24) %m_SubObjects, ptr noundef nonnull align 4 dereferenceable(4) %iNumMeshes)
  br label %for.inc

for.inc:                                          ; preds = %for.body, %if.then9
  %incdec.ptr.i = getelementptr inbounds i8, ptr %__begin1.sroa.0.013, i64 8
  %cmp.i.not = icmp eq ptr %incdec.ptr.i, %3
  br i1 %cmp.i.not, label %for.end, label %for.body

for.end:                                          ; preds = %for.inc, %if.end, %entry
  ret void
}